target datalayout = "e-m:e-p270:32:32-p271:32:32-p272:64:64-i64:64-i128:128-f80:128-n8:16:32:64-S128"
target triple = "x86_64-pc-linux-gnu"

%"struct.std::atomic" = type { %"struct.std::__atomic_base" }
%"struct.std::__atomic_base" = type { i64 }
%"class.grpc_core::WeakRefCountedPtr" = type { ptr }
%"class.grpc_core::PolymorphicRefCount" = type { ptr }
%"struct.std::atomic.3" = type { %"struct.std::__atomic_base.4" }
%"struct.std::__atomic_base.4" = type { i64 }
%"class.absl::lts_20240722::Mutex" = type { %"struct.std::atomic" }
%"struct.absl::lts_20240722::container_internal::internal_compressed_tuple::Storage" = type { %"class.absl::lts_20240722::container_internal::CommonFields" }
%"class.absl::lts_20240722::container_internal::CommonFields" = type { i64, i64, %"union.absl::lts_20240722::container_internal::HeapOrSoo" }
%"union.absl::lts_20240722::container_internal::HeapOrSoo" = type { %"struct.absl::lts_20240722::container_internal::HeapPtrs" }
%"struct.absl::lts_20240722::container_internal::HeapPtrs" = type { ptr, %"union.absl::lts_20240722::container_internal::MaybeInitializedPtr" }
%"union.absl::lts_20240722::container_internal::MaybeInitializedPtr" = type { ptr }
%"class.std::__cxx11::basic_string" = type { %"struct.std::__cxx11::basic_string<char>::_Alloc_hider", i64, %union.anon.5 }
%"struct.std::__cxx11::basic_string<char>::_Alloc_hider" = type { ptr }
%union.anon.5 = type { i64, [8 x i8] }
%"class.grpc_core::RefCountedPtr.31" = type { ptr }
%"class.grpc_core::GrpcXdsTransportFactory::GrpcXdsTransport" = type { %"class.grpc_core::XdsTransportFactory::XdsTransport", %"class.grpc_core::WeakRefCountedPtr", %"class.std::__cxx11::basic_string", %"class.grpc_core::RefCountedPtr.31", %"class.absl::lts_20240722::Mutex", %"class.absl::lts_20240722::flat_hash_map.32" }
%"class.grpc_core::XdsTransportFactory::XdsTransport" = type { %"class.grpc_core::DualRefCounted.30" }
%"class.grpc_core::DualRefCounted.30" = type { %"class.grpc_core::PolymorphicRefCount", %"struct.std::atomic.3" }
%"class.absl::lts_20240722::flat_hash_map.32" = type { %"class.absl::lts_20240722::container_internal::raw_hash_map.33" }
%"class.absl::lts_20240722::container_internal::raw_hash_map.33" = type { %"class.absl::lts_20240722::container_internal::raw_hash_set.34" }
%"class.absl::lts_20240722::container_internal::raw_hash_set.34" = type { %"class.absl::lts_20240722::container_internal::CompressedTuple.35" }
%"class.absl::lts_20240722::container_internal::CompressedTuple.35" = type { %"struct.absl::lts_20240722::container_internal::internal_compressed_tuple::CompressedTupleImpl.36" }
%"struct.absl::lts_20240722::container_internal::internal_compressed_tuple::CompressedTupleImpl.36" = type { %"struct.absl::lts_20240722::container_internal::internal_compressed_tuple::Storage" }

; Function Attrs: mustprogress nounwind uwtable
define linkonce_odr noundef ptr @_ZNK9grpc_core13RefCountedPtrINS_7ChannelEEptEv(ptr noundef nonnull align 8 dereferenceable(8) %0) #6 comdat align 2 {
  %2 = alloca ptr, align 8
  store ptr %0, ptr %2, align 8, !tbaa !138
  %3 = load ptr, ptr %2, align 8
  %4 = getelementptr inbounds nuw %"class.grpc_core::RefCountedPtr.31", ptr %3, i32 0, i32 0
  %5 = load ptr, ptr %4, align 8, !tbaa !140
  ret ptr %5
}

; Function Attrs: mustprogress uwtable
define void @_ZN9grpc_core23GrpcXdsTransportFactory16GrpcXdsTransport12ResetBackoffEv(ptr noundef nonnull align 8 dereferenceable(104) %0) unnamed_addr #4 align 2 {
  %2 = alloca ptr, align 8
  store ptr %0, ptr %2, align 8, !tbaa !130
  %3 = load ptr, ptr %2, align 8
  %4 = getelementptr inbounds nuw %"class.grpc_core::GrpcXdsTransportFactory::GrpcXdsTransport", ptr %3, i32 0, i32 3
  %5 = call noundef ptr @_ZNK9grpc_core13RefCountedPtrINS_7ChannelEEptEv(ptr noundef nonnull align 8 dereferenceable(8) %4)
  %6 = load ptr, ptr %5, align 8, !tbaa !16
  %7 = getelementptr inbounds ptr, ptr %6, i64 13
  %8 = load ptr, ptr %7, align 8
  call void %8(ptr noundef nonnull align 8 dereferenceable(144) %5)
  ret void
}