; Function Attrs: mustprogress uwtable
define void @_ZN9grpc_core23GrpcXdsTransportFactory16GrpcXdsTransport12ResetBackoffEv(ptr noundef nonnull readonly align 8 captures(none) dereferenceable(104) %0) unnamed_addr #3 align 2 {
  %2 = getelementptr inbounds nuw i8, ptr %0, i64 56
  %3 = load ptr, ptr %2, align 8, !tbaa !119
  %4 = load ptr, ptr %3, align 8, !tbaa !8
  %5 = getelementptr inbounds nuw i8, ptr %4, i64 104
  %6 = load ptr, ptr %5, align 8
  tail call void %6(ptr noundef nonnull align 8 dereferenceable(144) %3)
  ret void
}